target datalayout = "e-m:e-p270:32:32-p271:32:32-p272:64:64-i64:64-i128:128-f80:128-n8:16:32:64-S128"
target triple = "x86_64-pc-linux-gnu"

%union.pthread_mutex_t = type { %struct.__pthread_mutex_s }
%struct.__pthread_mutex_s = type { i32, i32, i32, i32, i32, i16, i16, %struct.__pthread_internal_list }
%struct.__pthread_internal_list = type { ptr, ptr }
%struct.pmix_tma = type { ptr, ptr, ptr, ptr, ptr, ptr, ptr, ptr }
%struct.pmix_object_t = type { %union.pthread_mutex_t, ptr, i32, %struct.pmix_tma }
%struct.pmix_list_item_t = type { %struct.pmix_object_t, ptr, ptr, i32 }
%struct.pmix_connection_t = type { %struct.pmix_list_item_t, i32, ptr, i32, ptr, ptr }

; Function Attrs: nounwind uwtable
define internal void @ccon(ptr noundef %0) #0 {
  %2 = alloca ptr, align 8
  store ptr %0, ptr %2, align 8, !tbaa !107
  %3 = load ptr, ptr %2, align 8, !tbaa !107
  %4 = getelementptr inbounds nuw %struct.pmix_connection_t, ptr %3, i32 0, i32 1
  store i32 -1, ptr %4, align 8, !tbaa !163
  %5 = load ptr, ptr %2, align 8, !tbaa !107
  %6 = getelementptr inbounds nuw %struct.pmix_connection_t, ptr %5, i32 0, i32 2
  store ptr null, ptr %6, align 8, !tbaa !165
  %7 = load ptr, ptr %2, align 8, !tbaa !107
  %8 = getelementptr inbounds nuw %struct.pmix_connection_t, ptr %7, i32 0, i32 3
  store i32 -4, ptr %8, align 8, !tbaa !166
  %9 = load ptr, ptr %2, align 8, !tbaa !107
  %10 = getelementptr inbounds nuw %struct.pmix_connection_t, ptr %9, i32 0, i32 4
  store ptr null, ptr %10, align 8, !tbaa !167
  %11 = load ptr, ptr %2, align 8, !tbaa !107
  %12 = getelementptr inbounds nuw %struct.pmix_connection_t, ptr %11, i32 0, i32 5
  store ptr null, ptr %12, align 8, !tbaa !168
  ret void
}