; Function Attrs: mustprogress nofree norecurse nosync nounwind willreturn memory(argmem: write) uwtable
define internal void @ccon(ptr noundef writeonly captures(none) initializes((144, 148), (152, 164), (168, 184)) %0) #1 {
  %2 = getelementptr inbounds nuw i8, ptr %0, i64 144
  store i32 -1, ptr %2, align 8, !tbaa !151
  %3 = getelementptr inbounds nuw i8, ptr %0, i64 152
  store ptr null, ptr %3, align 8, !tbaa !153
  %4 = getelementptr inbounds nuw i8, ptr %0, i64 160
  store i32 -4, ptr %4, align 8, !tbaa !154
  %5 = getelementptr inbounds nuw i8, ptr %0, i64 168
  tail call void @llvm.memset.p0.i64(ptr noundef nonnull align 8 dereferenceable(16) %5, i8 0, i64 16, i1 false)
  ret void
}